; Function Attrs: mustprogress uwtable
define internal noundef nonnull ptr @_ZN4cvc58internal13preprocessing12_GLOBAL__N_18callCtorINS1_6passes22PseudoBooleanProcessorEEEPNS1_17PreprocessingPassEPNS1_24PreprocessingPassContextE(ptr noundef %0) #3 personality ptr @__gxx_personality_v0 {
  %2 = tail call noalias noundef nonnull dereferenceable(624) ptr @_Znwm(i64 noundef 624) #22
  invoke void @_ZN4cvc58internal13preprocessing6passes22PseudoBooleanProcessorC1EPNS1_24PreprocessingPassContextE(ptr noundef nonnull align 8 dereferenceable(624) %2, ptr noundef %0)
          to label %3 unwind label %4

3:                                                ; preds = %1
  ret ptr %2

4:                                                ; preds = %1
  %5 = landingpad { ptr, i32 }
          cleanup
  tail call void @_ZdlPvm(ptr noundef nonnull %2, i64 noundef 624) #23
  resume { ptr, i32 } %5
}